	.section	__TEXT,__text,regular,pure_instructions
	.build_version macos, 12, 0	sdk_version 12, 1
	.file	1 "/Users/dk/Desktop/6679" "./definitions.h"
	.file	2 "/Library/Developer/CommandLineTools/SDKs/MacOSX.sdk/usr/include/sys/_types" "_int32_t.h"
	.file	3 "/Library/Developer/CommandLineTools/SDKs/MacOSX.sdk/usr/include/_types" "_uint32_t.h"
	.file	4 "/Library/Developer/CommandLineTools/usr/lib/clang/13.0.0/include" "stddef.h"
	.globl	_updateUpperBound               ## -- Begin function updateUpperBound
	.p2align	4, 0x90
_updateUpperBound:                      ## @updateUpperBound
Lfunc_begin0:
	.file	5 "/Users/dk/Desktop/6679" "functionDeclarations.c"
	.loc	5 82 0                          ## functionDeclarations.c:82:0
	.cfi_startproc
## %bb.0:
	pushq	%rbp
	.cfi_def_cfa_offset 16
	.cfi_offset %rbp, -16
	movq	%rsp, %rbp
	.cfi_def_cfa_register %rbp
	subq	$16, %rsp
	movq	%rdi, -8(%rbp)
	movsd	%xmm0, -16(%rbp)
Ltmp0:
	.loc	5 83 11 prologue_end            ## functionDeclarations.c:83:11
	movq	-8(%rbp), %rax
	.loc	5 83 10 is_stmt 0               ## functionDeclarations.c:83:10
	cmpq	$0, 16(%rax)
Ltmp1:
	.loc	5 83 9                          ## functionDeclarations.c:83:9
	jne	LBB0_2
## %bb.1:
Ltmp2:
	.loc	5 85 35 is_stmt 1               ## functionDeclarations.c:85:35
	movl	$1, %edi
	movl	$8, %esi
	callq	_calloc
	movq	%rax, %rcx
	.loc	5 85 9 is_stmt 0                ## functionDeclarations.c:85:9
	movq	-8(%rbp), %rax
	.loc	5 85 23                         ## functionDeclarations.c:85:23
	movq	%rcx, 16(%rax)
	.loc	5 86 28 is_stmt 1               ## functionDeclarations.c:86:28
	movsd	-16(%rbp), %xmm0                ## xmm0 = mem[0],zero
	.loc	5 86 11 is_stmt 0               ## functionDeclarations.c:86:11
	movq	-8(%rbp), %rax
	.loc	5 86 14                         ## functionDeclarations.c:86:14
	movq	16(%rax), %rax
	.loc	5 86 26                         ## functionDeclarations.c:86:26
	movsd	%xmm0, (%rax)
	.loc	5 87 5 is_stmt 1                ## functionDeclarations.c:87:5
	jmp	LBB0_3
Ltmp3:
LBB0_2:
	.loc	5 90 35                         ## functionDeclarations.c:90:35
	movq	-8(%rbp), %rax
	.loc	5 90 38 is_stmt 0               ## functionDeclarations.c:90:38
	movq	16(%rax), %rax
	.loc	5 90 33                         ## functionDeclarations.c:90:33
	movsd	(%rax), %xmm3                   ## xmm3 = mem[0],zero
	.loc	5 90 51                         ## functionDeclarations.c:90:51
	movsd	-16(%rbp), %xmm2                ## xmm2 = mem[0],zero
	.loc	5 90 28                         ## functionDeclarations.c:90:28
	movaps	%xmm2, %xmm4
	movaps	%xmm3, %xmm0
	cmpunordsd	%xmm0, %xmm0
	movaps	%xmm0, %xmm1
	pand	%xmm4, %xmm1
	minsd	%xmm3, %xmm2
	pandn	%xmm2, %xmm0
	por	%xmm1, %xmm0
	.loc	5 90 11                         ## functionDeclarations.c:90:11
	movq	-8(%rbp), %rax
	.loc	5 90 14                         ## functionDeclarations.c:90:14
	movq	16(%rax), %rax
	.loc	5 90 26                         ## functionDeclarations.c:90:26
	movsd	%xmm0, (%rax)
Ltmp4:
LBB0_3:
	.loc	5 92 1 is_stmt 1                ## functionDeclarations.c:92:1
	addq	$16, %rsp
	popq	%rbp
	retq
Ltmp5:
Lfunc_end0:
	.cfi_endproc
                                        ## -- End function
	.globl	_updateLowerBound               ## -- Begin function updateLowerBound
	.p2align	4, 0x90
_updateLowerBound:                      ## @updateLowerBound
Lfunc_begin1:
	.loc	5 95 0                          ## functionDeclarations.c:95:0
	.cfi_startproc
## %bb.0:
	pushq	%rbp
	.cfi_def_cfa_offset 16
	.cfi_offset %rbp, -16
	movq	%rsp, %rbp
	.cfi_def_cfa_register %rbp
	subq	$16, %rsp
	movq	%rdi, -8(%rbp)
	movsd	%xmm0, -16(%rbp)
Ltmp6:
	.loc	5 96 11 prologue_end            ## functionDeclarations.c:96:11
	movq	-8(%rbp), %rax
	.loc	5 96 10 is_stmt 0               ## functionDeclarations.c:96:10
	cmpq	$0, 24(%rax)
Ltmp7:
	.loc	5 96 9                          ## functionDeclarations.c:96:9
	jne	LBB1_2
## %bb.1:
Ltmp8:
	.loc	5 98 35 is_stmt 1               ## functionDeclarations.c:98:35
	movl	$1, %edi
	movl	$8, %esi
	callq	_calloc
	movq	%rax, %rcx
	.loc	5 98 9 is_stmt 0                ## functionDeclarations.c:98:9
	movq	-8(%rbp), %rax
	.loc	5 98 23                         ## functionDeclarations.c:98:23
	movq	%rcx, 24(%rax)
	.loc	5 99 28 is_stmt 1               ## functionDeclarations.c:99:28
	movsd	-16(%rbp), %xmm0                ## xmm0 = mem[0],zero
	.loc	5 99 11 is_stmt 0               ## functionDeclarations.c:99:11
	movq	-8(%rbp), %rax
	.loc	5 99 14                         ## functionDeclarations.c:99:14
	movq	24(%rax), %rax
	.loc	5 99 26                         ## functionDeclarations.c:99:26
	movsd	%xmm0, (%rax)
	.loc	5 100 5 is_stmt 1               ## functionDeclarations.c:100:5
	jmp	LBB1_3
Ltmp9:
LBB1_2:
	.loc	5 103 35                        ## functionDeclarations.c:103:35
	movq	-8(%rbp), %rax
	.loc	5 103 38 is_stmt 0              ## functionDeclarations.c:103:38
	movq	24(%rax), %rax
	.loc	5 103 33                        ## functionDeclarations.c:103:33
	movsd	(%rax), %xmm3                   ## xmm3 = mem[0],zero
	.loc	5 103 51                        ## functionDeclarations.c:103:51
	movsd	-16(%rbp), %xmm2                ## xmm2 = mem[0],zero
	.loc	5 103 28                        ## functionDeclarations.c:103:28
	movaps	%xmm2, %xmm4
	movaps	%xmm3, %xmm0
	cmpunordsd	%xmm0, %xmm0
	movaps	%xmm0, %xmm1
	pand	%xmm4, %xmm1
	maxsd	%xmm3, %xmm2
	pandn	%xmm2, %xmm0
	por	%xmm1, %xmm0
	.loc	5 103 11                        ## functionDeclarations.c:103:11
	movq	-8(%rbp), %rax
	.loc	5 103 14                        ## functionDeclarations.c:103:14
	movq	24(%rax), %rax
	.loc	5 103 26                        ## functionDeclarations.c:103:26
	movsd	%xmm0, (%rax)
Ltmp10:
LBB1_3:
	.loc	5 105 1 is_stmt 1               ## functionDeclarations.c:105:1
	addq	$16, %rsp
	popq	%rbp
	retq
Ltmp11:
Lfunc_end1:
	.cfi_endproc
                                        ## -- End function
	.globl	_multiplyVars                   ## -- Begin function multiplyVars
	.p2align	4, 0x90
_multiplyVars:                          ## @multiplyVars
Lfunc_begin2:
	.loc	5 108 0                         ## functionDeclarations.c:108:0
	.cfi_startproc
## %bb.0:
	pushq	%rbp
	.cfi_def_cfa_offset 16
	.cfi_offset %rbp, -16
	movq	%rsp, %rbp
	.cfi_def_cfa_register %rbp
	subq	$32, %rsp
	movq	%rdi, -8(%rbp)
	movq	%rsi, -16(%rbp)
Ltmp12:
	.loc	5 109 24 prologue_end           ## functionDeclarations.c:109:24
	movl	$1, %edi
	movl	$32, %esi
	callq	_calloc
	.loc	5 109 10 is_stmt 0              ## functionDeclarations.c:109:10
	movq	%rax, -24(%rbp)
	.loc	5 110 5 is_stmt 1               ## functionDeclarations.c:110:5
	movq	-24(%rbp), %rax
	.loc	5 110 29 is_stmt 0              ## functionDeclarations.c:110:29
	movq	$0, 16(%rax)
	.loc	5 111 5 is_stmt 1               ## functionDeclarations.c:111:5
	movq	-24(%rbp), %rax
	.loc	5 111 29 is_stmt 0              ## functionDeclarations.c:111:29
	movq	$0, 24(%rax)
	.loc	5 112 25 is_stmt 1              ## functionDeclarations.c:112:25
	movq	-8(%rbp), %rax
	.loc	5 112 28 is_stmt 0              ## functionDeclarations.c:112:28
	movq	8(%rax), %rcx
	.loc	5 112 35                        ## functionDeclarations.c:112:35
	movq	-16(%rbp), %rax
	.loc	5 112 33                        ## functionDeclarations.c:112:33
	addq	8(%rax), %rcx
	.loc	5 112 5                         ## functionDeclarations.c:112:5
	movq	-24(%rbp), %rax
	.loc	5 112 23                        ## functionDeclarations.c:112:23
	movq	%rcx, 8(%rax)
	.loc	5 113 44 is_stmt 1              ## functionDeclarations.c:113:44
	movq	-24(%rbp), %rax
	.loc	5 113 57 is_stmt 0              ## functionDeclarations.c:113:57
	movq	8(%rax), %rdi
	.loc	5 113 37                        ## functionDeclarations.c:113:37
	movl	$4, %esi
	callq	_calloc
	movq	%rax, %rcx
	.loc	5 113 5                         ## functionDeclarations.c:113:5
	movq	-24(%rbp), %rax
	.loc	5 113 24                        ## functionDeclarations.c:113:24
	movq	%rcx, (%rax)
	.loc	5 114 17 is_stmt 1              ## functionDeclarations.c:114:17
	movq	-24(%rbp), %rax
	.loc	5 114 30 is_stmt 0              ## functionDeclarations.c:114:30
	movq	(%rax), %rdi
	.loc	5 114 37                        ## functionDeclarations.c:114:37
	movq	-8(%rbp), %rax
	.loc	5 114 40                        ## functionDeclarations.c:114:40
	movq	(%rax), %rsi
	.loc	5 114 47                        ## functionDeclarations.c:114:47
	movq	-16(%rbp), %rax
	.loc	5 114 50                        ## functionDeclarations.c:114:50
	movq	(%rax), %rdx
	.loc	5 114 57                        ## functionDeclarations.c:114:57
	movq	-8(%rbp), %rax
	.loc	5 114 60                        ## functionDeclarations.c:114:60
	movq	8(%rax), %rcx
	.loc	5 114 66                        ## functionDeclarations.c:114:66
	movq	-16(%rbp), %rax
	.loc	5 114 69                        ## functionDeclarations.c:114:69
	movq	8(%rax), %r8
	.loc	5 114 5                         ## functionDeclarations.c:114:5
	callq	_mergeArrays
	.loc	5 115 12 is_stmt 1              ## functionDeclarations.c:115:12
	movq	-24(%rbp), %rax
	.loc	5 115 5 is_stmt 0               ## functionDeclarations.c:115:5
	addq	$32, %rsp
	popq	%rbp
	retq
Ltmp13:
Lfunc_end2:
	.cfi_endproc
                                        ## -- End function
	.p2align	4, 0x90                         ## -- Begin function mergeArrays
_mergeArrays:                           ## @mergeArrays
Lfunc_begin3:
	.loc	5 8 0 is_stmt 1                 ## functionDeclarations.c:8:0
	.cfi_startproc
## %bb.0:
	pushq	%rbp
	.cfi_def_cfa_offset 16
	.cfi_offset %rbp, -16
	movq	%rsp, %rbp
	.cfi_def_cfa_register %rbp
	movq	%rdi, -8(%rbp)
	movq	%rsi, -16(%rbp)
	movq	%rdx, -24(%rbp)
	movq	%rcx, -32(%rbp)
	movq	%r8, -40(%rbp)
Ltmp14:
	.loc	5 9 13 prologue_end             ## functionDeclarations.c:9:13
	movl	$0, -44(%rbp)
	.loc	5 9 31 is_stmt 0                ## functionDeclarations.c:9:31
	movl	$0, -48(%rbp)
	.loc	5 9 50                          ## functionDeclarations.c:9:50
	movl	$0, -52(%rbp)
LBB3_1:                                 ## =>This Inner Loop Header: Depth=1
	.loc	5 0 50                          ## functionDeclarations.c:0:50
	xorl	%eax, %eax
                                        ## kill: def $al killed $al killed $eax
	.loc	5 11 12 is_stmt 1               ## functionDeclarations.c:11:12
	movslq	-44(%rbp), %rcx
	.loc	5 11 25 is_stmt 0               ## functionDeclarations.c:11:25
	cmpq	-32(%rbp), %rcx
	movb	%al, -53(%rbp)                  ## 1-byte Spill
	.loc	5 11 37                         ## functionDeclarations.c:11:37
	jae	LBB3_3
## %bb.2:                               ##   in Loop: Header=BB3_1 Depth=1
	.loc	5 11 40                         ## functionDeclarations.c:11:40
	movslq	-48(%rbp), %rax
	.loc	5 11 54                         ## functionDeclarations.c:11:54
	cmpq	-40(%rbp), %rax
	setb	%al
	movb	%al, -53(%rbp)                  ## 1-byte Spill
LBB3_3:                                 ##   in Loop: Header=BB3_1 Depth=1
	.loc	5 0 54                          ## functionDeclarations.c:0:54
	movb	-53(%rbp), %al                  ## 1-byte Reload
	.loc	5 11 5                          ## functionDeclarations.c:11:5
	testb	$1, %al
	jne	LBB3_4
	jmp	LBB3_8
LBB3_4:                                 ##   in Loop: Header=BB3_1 Depth=1
Ltmp15:
	.loc	5 13 13 is_stmt 1               ## functionDeclarations.c:13:13
	movq	-16(%rbp), %rax
	movslq	-44(%rbp), %rcx
	movl	(%rax,%rcx,4), %eax
	.loc	5 13 36 is_stmt 0               ## functionDeclarations.c:13:36
	movq	-24(%rbp), %rcx
	movslq	-48(%rbp), %rdx
	.loc	5 13 33                         ## functionDeclarations.c:13:33
	cmpl	(%rcx,%rdx,4), %eax
Ltmp16:
	.loc	5 13 13                         ## functionDeclarations.c:13:13
	jg	LBB3_6
## %bb.5:                               ##   in Loop: Header=BB3_1 Depth=1
Ltmp17:
	.loc	5 15 37 is_stmt 1               ## functionDeclarations.c:15:37
	movq	-16(%rbp), %rax
	movslq	-44(%rbp), %rcx
	movl	(%rax,%rcx,4), %edx
	.loc	5 15 13 is_stmt 0               ## functionDeclarations.c:15:13
	movq	-8(%rbp), %rax
	movslq	-52(%rbp), %rcx
	.loc	5 15 35                         ## functionDeclarations.c:15:35
	movl	%edx, (%rax,%rcx,4)
	.loc	5 16 25 is_stmt 1               ## functionDeclarations.c:16:25
	movl	-44(%rbp), %eax
	addl	$1, %eax
	movl	%eax, -44(%rbp)
	.loc	5 17 9                          ## functionDeclarations.c:17:9
	jmp	LBB3_7
Ltmp18:
LBB3_6:                                 ##   in Loop: Header=BB3_1 Depth=1
	.loc	5 20 37                         ## functionDeclarations.c:20:37
	movq	-24(%rbp), %rax
	movslq	-48(%rbp), %rcx
	movl	(%rax,%rcx,4), %edx
	.loc	5 20 13 is_stmt 0               ## functionDeclarations.c:20:13
	movq	-8(%rbp), %rax
	movslq	-52(%rbp), %rcx
	.loc	5 20 35                         ## functionDeclarations.c:20:35
	movl	%edx, (%rax,%rcx,4)
	.loc	5 21 26 is_stmt 1               ## functionDeclarations.c:21:26
	movl	-48(%rbp), %eax
	addl	$1, %eax
	movl	%eax, -48(%rbp)
Ltmp19:
LBB3_7:                                 ##   in Loop: Header=BB3_1 Depth=1
	.loc	5 23 22                         ## functionDeclarations.c:23:22
	movl	-52(%rbp), %eax
	addl	$1, %eax
	movl	%eax, -52(%rbp)
Ltmp20:
	.loc	5 11 5                          ## functionDeclarations.c:11:5
	jmp	LBB3_1
LBB3_8:
	.loc	5 26 5                          ## functionDeclarations.c:26:5
	jmp	LBB3_9
LBB3_9:                                 ## =>This Inner Loop Header: Depth=1
	.loc	5 26 12 is_stmt 0               ## functionDeclarations.c:26:12
	movslq	-44(%rbp), %rax
	.loc	5 26 25                         ## functionDeclarations.c:26:25
	cmpq	-32(%rbp), %rax
	.loc	5 26 5                          ## functionDeclarations.c:26:5
	jae	LBB3_11
## %bb.10:                              ##   in Loop: Header=BB3_9 Depth=1
Ltmp21:
	.loc	5 28 33 is_stmt 1               ## functionDeclarations.c:28:33
	movq	-16(%rbp), %rax
	movslq	-44(%rbp), %rcx
	movl	(%rax,%rcx,4), %edx
	.loc	5 28 9 is_stmt 0                ## functionDeclarations.c:28:9
	movq	-8(%rbp), %rax
	movslq	-52(%rbp), %rcx
	.loc	5 28 31                         ## functionDeclarations.c:28:31
	movl	%edx, (%rax,%rcx,4)
	.loc	5 29 21 is_stmt 1               ## functionDeclarations.c:29:21
	movl	-44(%rbp), %eax
	addl	$1, %eax
	movl	%eax, -44(%rbp)
	.loc	5 30 22                         ## functionDeclarations.c:30:22
	movl	-52(%rbp), %eax
	addl	$1, %eax
	movl	%eax, -52(%rbp)
Ltmp22:
	.loc	5 26 5                          ## functionDeclarations.c:26:5
	jmp	LBB3_9
LBB3_11:
	.loc	5 33 5                          ## functionDeclarations.c:33:5
	jmp	LBB3_12
LBB3_12:                                ## =>This Inner Loop Header: Depth=1
	.loc	5 33 12 is_stmt 0               ## functionDeclarations.c:33:12
	movslq	-48(%rbp), %rax
	.loc	5 33 26                         ## functionDeclarations.c:33:26
	cmpq	-40(%rbp), %rax
	.loc	5 33 5                          ## functionDeclarations.c:33:5
	jae	LBB3_14
## %bb.13:                              ##   in Loop: Header=BB3_12 Depth=1
Ltmp23:
	.loc	5 35 33 is_stmt 1               ## functionDeclarations.c:35:33
	movq	-24(%rbp), %rax
	movslq	-48(%rbp), %rcx
	movl	(%rax,%rcx,4), %edx
	.loc	5 35 9 is_stmt 0                ## functionDeclarations.c:35:9
	movq	-8(%rbp), %rax
	movslq	-52(%rbp), %rcx
	.loc	5 35 31                         ## functionDeclarations.c:35:31
	movl	%edx, (%rax,%rcx,4)
	.loc	5 36 22 is_stmt 1               ## functionDeclarations.c:36:22
	movl	-48(%rbp), %eax
	addl	$1, %eax
	movl	%eax, -48(%rbp)
	.loc	5 37 22                         ## functionDeclarations.c:37:22
	movl	-52(%rbp), %eax
	addl	$1, %eax
	movl	%eax, -52(%rbp)
Ltmp24:
	.loc	5 33 5                          ## functionDeclarations.c:33:5
	jmp	LBB3_12
LBB3_14:
	.loc	5 39 1                          ## functionDeclarations.c:39:1
	popq	%rbp
	retq
Ltmp25:
Lfunc_end3:
	.cfi_endproc
                                        ## -- End function
	.globl	_freeVar                        ## -- Begin function freeVar
	.p2align	4, 0x90
_freeVar:                               ## @freeVar
Lfunc_begin4:
	.loc	5 119 0                         ## functionDeclarations.c:119:0
	.cfi_startproc
## %bb.0:
	pushq	%rbp
	.cfi_def_cfa_offset 16
	.cfi_offset %rbp, -16
	movq	%rsp, %rbp
	.cfi_def_cfa_register %rbp
	subq	$16, %rsp
	movq	%rdi, -8(%rbp)
Ltmp26:
	.loc	5 120 10 prologue_end           ## functionDeclarations.c:120:10
	movq	-8(%rbp), %rax
	.loc	5 120 13 is_stmt 0              ## functionDeclarations.c:120:13
	movq	(%rax), %rdi
	.loc	5 120 5                         ## functionDeclarations.c:120:5
	callq	_free
	.loc	5 121 10 is_stmt 1              ## functionDeclarations.c:121:10
	movq	-8(%rbp), %rdi
	.loc	5 121 5 is_stmt 0               ## functionDeclarations.c:121:5
	callq	_free
	.loc	5 122 1 is_stmt 1               ## functionDeclarations.c:122:1
	addq	$16, %rsp
	popq	%rbp
	retq
Ltmp27:
Lfunc_end4:
	.cfi_endproc
                                        ## -- End function
	.globl	_multiplyTerms                  ## -- Begin function multiplyTerms
	.p2align	4, 0x90
_multiplyTerms:                         ## @multiplyTerms
Lfunc_begin5:
	.loc	5 125 0                         ## functionDeclarations.c:125:0
	.cfi_startproc
## %bb.0:
	pushq	%rbp
	.cfi_def_cfa_offset 16
	.cfi_offset %rbp, -16
	movq	%rsp, %rbp
	.cfi_def_cfa_register %rbp
	subq	$32, %rsp
	movq	%rdi, -8(%rbp)
	movq	%rsi, -16(%rbp)
Ltmp28:
	.loc	5 126 21 prologue_end           ## functionDeclarations.c:126:21
	movl	$1, %edi
	movl	$16, %esi
	callq	_calloc
	.loc	5 126 11 is_stmt 0              ## functionDeclarations.c:126:11
	movq	%rax, -24(%rbp)
	.loc	5 127 28 is_stmt 1              ## functionDeclarations.c:127:28
	movq	-8(%rbp), %rax
	.loc	5 127 31 is_stmt 0              ## functionDeclarations.c:127:31
	movsd	8(%rax), %xmm0                  ## xmm0 = mem[0],zero
	.loc	5 127 45                        ## functionDeclarations.c:127:45
	movq	-16(%rbp), %rax
	.loc	5 127 43                        ## functionDeclarations.c:127:43
	mulsd	8(%rax), %xmm0
	.loc	5 127 5                         ## functionDeclarations.c:127:5
	movq	-24(%rbp), %rax
	.loc	5 127 26                        ## functionDeclarations.c:127:26
	movsd	%xmm0, 8(%rax)
Ltmp29:
	.loc	5 128 11 is_stmt 1              ## functionDeclarations.c:128:11
	movq	-8(%rbp), %rax
	cmpq	$0, (%rax)
	.loc	5 128 24 is_stmt 0              ## functionDeclarations.c:128:24
	jne	LBB5_3
## %bb.1:
	.loc	5 128 27                        ## functionDeclarations.c:128:27
	movq	-16(%rbp), %rax
	cmpq	$0, (%rax)
Ltmp30:
	.loc	5 128 9                         ## functionDeclarations.c:128:9
	jne	LBB5_3
## %bb.2:
Ltmp31:
	.loc	5 130 9 is_stmt 1               ## functionDeclarations.c:130:9
	movq	-24(%rbp), %rax
	.loc	5 130 28 is_stmt 0              ## functionDeclarations.c:130:28
	movq	$0, (%rax)
	.loc	5 131 5 is_stmt 1               ## functionDeclarations.c:131:5
	jmp	LBB5_12
Ltmp32:
LBB5_3:
	.loc	5 132 16                        ## functionDeclarations.c:132:16
	movq	-8(%rbp), %rax
	.loc	5 132 15 is_stmt 0              ## functionDeclarations.c:132:15
	cmpq	$0, (%rax)
	.loc	5 132 30                        ## functionDeclarations.c:132:30
	jne	LBB5_6
## %bb.4:
	.loc	5 132 33                        ## functionDeclarations.c:132:33
	movq	-16(%rbp), %rax
	cmpq	$0, (%rax)
Ltmp33:
	.loc	5 132 14                        ## functionDeclarations.c:132:14
	je	LBB5_6
## %bb.5:
Ltmp34:
	.loc	5 134 30 is_stmt 1              ## functionDeclarations.c:134:30
	movq	-16(%rbp), %rax
	.loc	5 134 33 is_stmt 0              ## functionDeclarations.c:134:33
	movq	(%rax), %rcx
	.loc	5 134 9                         ## functionDeclarations.c:134:9
	movq	-24(%rbp), %rax
	.loc	5 134 28                        ## functionDeclarations.c:134:28
	movq	%rcx, (%rax)
	.loc	5 135 5 is_stmt 1               ## functionDeclarations.c:135:5
	jmp	LBB5_11
Ltmp35:
LBB5_6:
	.loc	5 136 14                        ## functionDeclarations.c:136:14
	movq	-8(%rbp), %rax
	cmpq	$0, (%rax)
	.loc	5 136 27 is_stmt 0              ## functionDeclarations.c:136:27
	je	LBB5_9
## %bb.7:
	.loc	5 136 32                        ## functionDeclarations.c:136:32
	movq	-16(%rbp), %rax
	.loc	5 136 31                        ## functionDeclarations.c:136:31
	cmpq	$0, (%rax)
Ltmp36:
	.loc	5 136 14                        ## functionDeclarations.c:136:14
	jne	LBB5_9
## %bb.8:
Ltmp37:
	.loc	5 138 30 is_stmt 1              ## functionDeclarations.c:138:30
	movq	-8(%rbp), %rax
	.loc	5 138 33 is_stmt 0              ## functionDeclarations.c:138:33
	movq	(%rax), %rcx
	.loc	5 138 9                         ## functionDeclarations.c:138:9
	movq	-24(%rbp), %rax
	.loc	5 138 28                        ## functionDeclarations.c:138:28
	movq	%rcx, (%rax)
	.loc	5 139 5 is_stmt 1               ## functionDeclarations.c:139:5
	jmp	LBB5_10
Ltmp38:
LBB5_9:
	.loc	5 142 43                        ## functionDeclarations.c:142:43
	movq	-8(%rbp), %rax
	.loc	5 142 46 is_stmt 0              ## functionDeclarations.c:142:46
	movq	(%rax), %rdi
	.loc	5 142 57                        ## functionDeclarations.c:142:57
	movq	-16(%rbp), %rax
	.loc	5 142 60                        ## functionDeclarations.c:142:60
	movq	(%rax), %rsi
	.loc	5 142 30                        ## functionDeclarations.c:142:30
	callq	_multiplyVars
	movq	%rax, %rcx
	.loc	5 142 9                         ## functionDeclarations.c:142:9
	movq	-24(%rbp), %rax
	.loc	5 142 28                        ## functionDeclarations.c:142:28
	movq	%rcx, (%rax)
Ltmp39:
LBB5_10:
	.loc	5 0 28                          ## functionDeclarations.c:0:28
	jmp	LBB5_11
LBB5_11:
	jmp	LBB5_12
LBB5_12:
	.loc	5 144 12 is_stmt 1              ## functionDeclarations.c:144:12
	movq	-24(%rbp), %rax
	.loc	5 144 5 is_stmt 0               ## functionDeclarations.c:144:5
	addq	$32, %rsp
	popq	%rbp
	retq
Ltmp40:
Lfunc_end5:
	.cfi_endproc
                                        ## -- End function
	.section	__TEXT,__literal8,8byte_literals
	.p2align	3                               ## -- Begin function negateTerm
LCPI6_0:
	.quad	0xbff0000000000000              ## double -1
	.section	__TEXT,__text,regular,pure_instructions
	.globl	_negateTerm
	.p2align	4, 0x90
_negateTerm:                            ## @negateTerm
Lfunc_begin6:
	.loc	5 148 0 is_stmt 1               ## functionDeclarations.c:148:0
	.cfi_startproc
## %bb.0:
	pushq	%rbp
	.cfi_def_cfa_offset 16
	.cfi_offset %rbp, -16
	movq	%rsp, %rbp
	.cfi_def_cfa_register %rbp
	movsd	LCPI6_0(%rip), %xmm0            ## xmm0 = mem[0],zero
	movq	%rdi, -8(%rbp)
Ltmp41:
	.loc	5 149 27 prologue_end           ## functionDeclarations.c:149:27
	movq	-8(%rbp), %rax
	.loc	5 149 25 is_stmt 0              ## functionDeclarations.c:149:25
	mulsd	8(%rax), %xmm0
	.loc	5 149 5                         ## functionDeclarations.c:149:5
	movq	-8(%rbp), %rax
	.loc	5 149 20                        ## functionDeclarations.c:149:20
	movsd	%xmm0, 8(%rax)
	.loc	5 150 1 is_stmt 1               ## functionDeclarations.c:150:1
	popq	%rbp
	retq
Ltmp42:
Lfunc_end6:
	.cfi_endproc
                                        ## -- End function
	.globl	_freeTerm                       ## -- Begin function freeTerm
	.p2align	4, 0x90
_freeTerm:                              ## @freeTerm
Lfunc_begin7:
	.loc	5 153 0                         ## functionDeclarations.c:153:0
	.cfi_startproc
## %bb.0:
	pushq	%rbp
	.cfi_def_cfa_offset 16
	.cfi_offset %rbp, -16
	movq	%rsp, %rbp
	.cfi_def_cfa_register %rbp
	subq	$16, %rsp
	movq	%rdi, -8(%rbp)
Ltmp43:
	.loc	5 154 10 prologue_end           ## functionDeclarations.c:154:10
	movq	-8(%rbp), %rax
	.loc	5 154 13 is_stmt 0              ## functionDeclarations.c:154:13
	movq	(%rax), %rdi
	.loc	5 154 5                         ## functionDeclarations.c:154:5
	callq	_free
	.loc	5 155 10 is_stmt 1              ## functionDeclarations.c:155:10
	movq	-8(%rbp), %rdi
	.loc	5 155 5 is_stmt 0               ## functionDeclarations.c:155:5
	callq	_free
	.loc	5 156 1 is_stmt 1               ## functionDeclarations.c:156:1
	addq	$16, %rsp
	popq	%rbp
	retq
Ltmp44:
Lfunc_end7:
	.cfi_endproc
                                        ## -- End function
	.globl	_multiplySense                  ## -- Begin function multiplySense
	.p2align	4, 0x90
_multiplySense:                         ## @multiplySense
Lfunc_begin8:
	.loc	5 159 0                         ## functionDeclarations.c:159:0
	.cfi_startproc
## %bb.0:
	pushq	%rbp
	.cfi_def_cfa_offset 16
	.cfi_offset %rbp, -16
	movq	%rsp, %rbp
	.cfi_def_cfa_register %rbp
	movl	%edi, -8(%rbp)
	movl	%esi, -12(%rbp)
Ltmp45:
	.loc	5 160 11 prologue_end           ## functionDeclarations.c:160:11
	cmpl	$2, -8(%rbp)
	.loc	5 160 20 is_stmt 0              ## functionDeclarations.c:160:20
	je	LBB8_2
## %bb.1:
	.loc	5 160 25                        ## functionDeclarations.c:160:25
	cmpl	$2, -12(%rbp)
Ltmp46:
	.loc	5 160 9                         ## functionDeclarations.c:160:9
	jne	LBB8_3
LBB8_2:
Ltmp47:
	.loc	5 162 9 is_stmt 1               ## functionDeclarations.c:162:9
	movl	$2, -4(%rbp)
	jmp	LBB8_6
Ltmp48:
LBB8_3:
	.loc	5 164 14                        ## functionDeclarations.c:164:14
	movl	-8(%rbp), %eax
	.loc	5 164 16 is_stmt 0              ## functionDeclarations.c:164:16
	cmpl	-12(%rbp), %eax
Ltmp49:
	.loc	5 164 14                        ## functionDeclarations.c:164:14
	jne	LBB8_5
## %bb.4:
Ltmp50:
	.loc	5 166 9 is_stmt 1               ## functionDeclarations.c:166:9
	movl	$0, -4(%rbp)
	jmp	LBB8_6
Ltmp51:
LBB8_5:
	.loc	5 170 9                         ## functionDeclarations.c:170:9
	movl	$1, -4(%rbp)
Ltmp52:
LBB8_6:
	.loc	5 172 1                         ## functionDeclarations.c:172:1
	movl	-4(%rbp), %eax
	popq	%rbp
	retq
Ltmp53:
Lfunc_end8:
	.cfi_endproc
                                        ## -- End function
	.globl	_canMultiply                    ## -- Begin function canMultiply
	.p2align	4, 0x90
_canMultiply:                           ## @canMultiply
Lfunc_begin9:
	.loc	5 174 0                         ## functionDeclarations.c:174:0
	.cfi_startproc
## %bb.0:
	pushq	%rbp
	.cfi_def_cfa_offset 16
	.cfi_offset %rbp, -16
	movq	%rsp, %rbp
	.cfi_def_cfa_register %rbp
	movq	%rdi, -16(%rbp)
	movq	%rsi, -24(%rbp)
Ltmp54:
	.loc	5 175 13 prologue_end           ## functionDeclarations.c:175:13
	movl	$0, -28(%rbp)
	.loc	5 175 31 is_stmt 0              ## functionDeclarations.c:175:31
	movl	$0, -32(%rbp)
LBB9_1:                                 ## =>This Inner Loop Header: Depth=1
	.loc	5 0 31                          ## functionDeclarations.c:0:31
	xorl	%eax, %eax
                                        ## kill: def $al killed $al killed $eax
	.loc	5 177 11 is_stmt 1              ## functionDeclarations.c:177:11
	movslq	-28(%rbp), %rcx
	.loc	5 177 26 is_stmt 0              ## functionDeclarations.c:177:26
	movq	-16(%rbp), %rdx
	.loc	5 177 24                        ## functionDeclarations.c:177:24
	cmpq	32(%rdx), %rcx
	movb	%al, -33(%rbp)                  ## 1-byte Spill
	.loc	5 177 39                        ## functionDeclarations.c:177:39
	jae	LBB9_3
## %bb.2:                               ##   in Loop: Header=BB9_1 Depth=1
	.loc	5 177 42                        ## functionDeclarations.c:177:42
	movslq	-32(%rbp), %rax
	.loc	5 177 58                        ## functionDeclarations.c:177:58
	movq	-24(%rbp), %rcx
	.loc	5 177 56                        ## functionDeclarations.c:177:56
	cmpq	32(%rcx), %rax
	setb	%al
	movb	%al, -33(%rbp)                  ## 1-byte Spill
LBB9_3:                                 ##   in Loop: Header=BB9_1 Depth=1
	.loc	5 0 56                          ## functionDeclarations.c:0:56
	movb	-33(%rbp), %al                  ## 1-byte Reload
	.loc	5 177 5                         ## functionDeclarations.c:177:5
	testb	$1, %al
	jne	LBB9_4
	jmp	LBB9_16
LBB9_4:                                 ##   in Loop: Header=BB9_1 Depth=1
Ltmp55:
	.loc	5 179 15 is_stmt 1              ## functionDeclarations.c:179:15
	movq	-16(%rbp), %rax
	.loc	5 179 18 is_stmt 0              ## functionDeclarations.c:179:18
	movq	24(%rax), %rax
	.loc	5 179 14                        ## functionDeclarations.c:179:14
	movslq	-28(%rbp), %rcx
	.loc	5 179 38                        ## functionDeclarations.c:179:38
	movl	(%rax,%rcx,8), %eax
	.loc	5 179 49                        ## functionDeclarations.c:179:49
	movq	-24(%rbp), %rcx
	.loc	5 179 52                        ## functionDeclarations.c:179:52
	movq	24(%rcx), %rcx
	.loc	5 179 48                        ## functionDeclarations.c:179:48
	movslq	-32(%rbp), %rdx
	.loc	5 179 45                        ## functionDeclarations.c:179:45
	cmpl	(%rcx,%rdx,8), %eax
Ltmp56:
	.loc	5 179 13                        ## functionDeclarations.c:179:13
	jae	LBB9_6
## %bb.5:                               ##   in Loop: Header=BB9_1 Depth=1
Ltmp57:
	.loc	5 180 26 is_stmt 1              ## functionDeclarations.c:180:26
	movl	-28(%rbp), %eax
	addl	$1, %eax
	movl	%eax, -28(%rbp)
	.loc	5 181 9                         ## functionDeclarations.c:181:9
	jmp	LBB9_15
Ltmp58:
LBB9_6:                                 ##   in Loop: Header=BB9_1 Depth=1
	.loc	5 182 21                        ## functionDeclarations.c:182:21
	movq	-16(%rbp), %rax
	.loc	5 182 24 is_stmt 0              ## functionDeclarations.c:182:24
	movq	24(%rax), %rax
	.loc	5 182 20                        ## functionDeclarations.c:182:20
	movslq	-28(%rbp), %rcx
	.loc	5 182 44                        ## functionDeclarations.c:182:44
	movl	(%rax,%rcx,8), %eax
	.loc	5 182 56                        ## functionDeclarations.c:182:56
	movq	-24(%rbp), %rcx
	.loc	5 182 59                        ## functionDeclarations.c:182:59
	movq	24(%rcx), %rcx
	.loc	5 182 55                        ## functionDeclarations.c:182:55
	movslq	-32(%rbp), %rdx
	.loc	5 182 51                        ## functionDeclarations.c:182:51
	cmpl	(%rcx,%rdx,8), %eax
	.loc	5 182 88                        ## functionDeclarations.c:182:88
	jne	LBB9_9
## %bb.7:                               ##   in Loop: Header=BB9_1 Depth=1
	.loc	5 183 20 is_stmt 1              ## functionDeclarations.c:183:20
	movq	-16(%rbp), %rax
	.loc	5 183 23 is_stmt 0              ## functionDeclarations.c:183:23
	movq	24(%rax), %rax
	.loc	5 183 19                        ## functionDeclarations.c:183:19
	movslq	-28(%rbp), %rcx
	.loc	5 183 43                        ## functionDeclarations.c:183:43
	movl	4(%rax,%rcx,8), %eax
	.loc	5 183 50                        ## functionDeclarations.c:183:50
	movq	-24(%rbp), %rcx
	.loc	5 183 53                        ## functionDeclarations.c:183:53
	movq	24(%rcx), %rcx
	.loc	5 183 49                        ## functionDeclarations.c:183:49
	movslq	-32(%rbp), %rdx
	.loc	5 183 46                        ## functionDeclarations.c:183:46
	cmpl	4(%rcx,%rdx,8), %eax
Ltmp59:
	.loc	5 182 18 is_stmt 1              ## functionDeclarations.c:182:18
	jae	LBB9_9
## %bb.8:                               ##   in Loop: Header=BB9_1 Depth=1
Ltmp60:
	.loc	5 184 26                        ## functionDeclarations.c:184:26
	movl	-28(%rbp), %eax
	addl	$1, %eax
	movl	%eax, -28(%rbp)
	.loc	5 185 9                         ## functionDeclarations.c:185:9
	jmp	LBB9_14
Ltmp61:
LBB9_9:                                 ##   in Loop: Header=BB9_1 Depth=1
	.loc	5 186 21                        ## functionDeclarations.c:186:21
	movq	-16(%rbp), %rax
	.loc	5 186 24 is_stmt 0              ## functionDeclarations.c:186:24
	movq	24(%rax), %rax
	.loc	5 186 20                        ## functionDeclarations.c:186:20
	movslq	-28(%rbp), %rcx
	.loc	5 186 44                        ## functionDeclarations.c:186:44
	movl	(%rax,%rcx,8), %eax
	.loc	5 186 56                        ## functionDeclarations.c:186:56
	movq	-24(%rbp), %rcx
	.loc	5 186 59                        ## functionDeclarations.c:186:59
	movq	24(%rcx), %rcx
	.loc	5 186 55                        ## functionDeclarations.c:186:55
	movslq	-32(%rbp), %rdx
	.loc	5 186 51                        ## functionDeclarations.c:186:51
	cmpl	(%rcx,%rdx,8), %eax
	.loc	5 186 88                        ## functionDeclarations.c:186:88
	jne	LBB9_12
## %bb.10:                              ##   in Loop: Header=BB9_1 Depth=1
	.loc	5 187 20 is_stmt 1              ## functionDeclarations.c:187:20
	movq	-16(%rbp), %rax
	.loc	5 187 23 is_stmt 0              ## functionDeclarations.c:187:23
	movq	24(%rax), %rax
	.loc	5 187 19                        ## functionDeclarations.c:187:19
	movslq	-28(%rbp), %rcx
	.loc	5 187 43                        ## functionDeclarations.c:187:43
	movl	4(%rax,%rcx,8), %eax
	.loc	5 187 51                        ## functionDeclarations.c:187:51
	movq	-24(%rbp), %rcx
	.loc	5 187 54                        ## functionDeclarations.c:187:54
	movq	24(%rcx), %rcx
	.loc	5 187 50                        ## functionDeclarations.c:187:50
	movslq	-32(%rbp), %rdx
	.loc	5 187 46                        ## functionDeclarations.c:187:46
	cmpl	4(%rcx,%rdx,8), %eax
Ltmp62:
	.loc	5 186 18 is_stmt 1              ## functionDeclarations.c:186:18
	jne	LBB9_12
## %bb.11:
Ltmp63:
	.loc	5 188 13                        ## functionDeclarations.c:188:13
	movb	$0, -1(%rbp)
	jmp	LBB9_17
Ltmp64:
LBB9_12:                                ##   in Loop: Header=BB9_1 Depth=1
	.loc	5 191 27                        ## functionDeclarations.c:191:27
	movl	-32(%rbp), %eax
	addl	$1, %eax
	movl	%eax, -32(%rbp)
Ltmp65:
## %bb.13:                              ##   in Loop: Header=BB9_1 Depth=1
	.loc	5 0 27 is_stmt 0                ## functionDeclarations.c:0:27
	jmp	LBB9_14
LBB9_14:                                ##   in Loop: Header=BB9_1 Depth=1
	jmp	LBB9_15
LBB9_15:                                ##   in Loop: Header=BB9_1 Depth=1
	.loc	5 177 5 is_stmt 1               ## functionDeclarations.c:177:5
	jmp	LBB9_1
LBB9_16:
	.loc	5 195 5                         ## functionDeclarations.c:195:5
	movb	$1, -1(%rbp)
LBB9_17:
	.loc	5 196 1                         ## functionDeclarations.c:196:1
	movb	-1(%rbp), %al
	andb	$1, %al
	movzbl	%al, %eax
	popq	%rbp
	retq
Ltmp66:
Lfunc_end9:
	.cfi_endproc
                                        ## -- End function
	.globl	_multiplyIds                    ## -- Begin function multiplyIds
	.p2align	4, 0x90
_multiplyIds:                           ## @multiplyIds
Lfunc_begin10:
	.loc	5 199 0                         ## functionDeclarations.c:199:0
	.cfi_startproc
## %bb.0:
	pushq	%rbp
	.cfi_def_cfa_offset 16
	.cfi_offset %rbp, -16
	movq	%rsp, %rbp
	.cfi_def_cfa_register %rbp
	subq	$48, %rsp
	movq	%rdi, -8(%rbp)
	movq	%rsi, -16(%rbp)
	movq	%rdx, -24(%rbp)
	movq	%rcx, -32(%rbp)
Ltmp67:
	.loc	5 200 33 prologue_end           ## functionDeclarations.c:200:33
	movq	-24(%rbp), %rdi
	.loc	5 200 39 is_stmt 0              ## functionDeclarations.c:200:39
	addq	-32(%rbp), %rdi
	.loc	5 200 26                        ## functionDeclarations.c:200:26
	movl	$8, %esi
	callq	_calloc
	.loc	5 200 10                        ## functionDeclarations.c:200:10
	movq	%rax, -40(%rbp)
	.loc	5 201 19 is_stmt 1              ## functionDeclarations.c:201:19
	movq	-40(%rbp), %rdi
	.loc	5 201 27 is_stmt 0              ## functionDeclarations.c:201:27
	movq	-8(%rbp), %rsi
	.loc	5 201 30                        ## functionDeclarations.c:201:30
	movq	-16(%rbp), %rdx
	.loc	5 201 33                        ## functionDeclarations.c:201:33
	movq	-24(%rbp), %rcx
	.loc	5 201 40                        ## functionDeclarations.c:201:40
	movq	-32(%rbp), %r8
	.loc	5 201 5                         ## functionDeclarations.c:201:5
	callq	_mergeIdArrays
	.loc	5 202 12 is_stmt 1              ## functionDeclarations.c:202:12
	movq	-40(%rbp), %rax
	.loc	5 202 5 is_stmt 0               ## functionDeclarations.c:202:5
	addq	$48, %rsp
	popq	%rbp
	retq
Ltmp68:
Lfunc_end10:
	.cfi_endproc
                                        ## -- End function
	.p2align	4, 0x90                         ## -- Begin function mergeIdArrays
_mergeIdArrays:                         ## @mergeIdArrays
Lfunc_begin11:
	.loc	5 42 0 is_stmt 1                ## functionDeclarations.c:42:0
	.cfi_startproc
## %bb.0:
	pushq	%rbp
	.cfi_def_cfa_offset 16
	.cfi_offset %rbp, -16
	movq	%rsp, %rbp
	.cfi_def_cfa_register %rbp
	movq	%rdi, -8(%rbp)
	movq	%rsi, -16(%rbp)
	movq	%rdx, -24(%rbp)
	movq	%rcx, -32(%rbp)
	movq	%r8, -40(%rbp)
Ltmp69:
	.loc	5 43 13 prologue_end            ## functionDeclarations.c:43:13
	movl	$0, -44(%rbp)
	.loc	5 43 31 is_stmt 0               ## functionDeclarations.c:43:31
	movl	$0, -48(%rbp)
	.loc	5 43 50                         ## functionDeclarations.c:43:50
	movl	$0, -52(%rbp)
LBB11_1:                                ## =>This Inner Loop Header: Depth=1
	.loc	5 0 50                          ## functionDeclarations.c:0:50
	xorl	%eax, %eax
                                        ## kill: def $al killed $al killed $eax
	.loc	5 45 12 is_stmt 1               ## functionDeclarations.c:45:12
	movslq	-44(%rbp), %rcx
	.loc	5 45 25 is_stmt 0               ## functionDeclarations.c:45:25
	cmpq	-32(%rbp), %rcx
	movb	%al, -53(%rbp)                  ## 1-byte Spill
	.loc	5 45 37                         ## functionDeclarations.c:45:37
	jae	LBB11_3
## %bb.2:                               ##   in Loop: Header=BB11_1 Depth=1
	.loc	5 45 40                         ## functionDeclarations.c:45:40
	movslq	-48(%rbp), %rax
	.loc	5 45 54                         ## functionDeclarations.c:45:54
	cmpq	-40(%rbp), %rax
	setb	%al
	movb	%al, -53(%rbp)                  ## 1-byte Spill
LBB11_3:                                ##   in Loop: Header=BB11_1 Depth=1
	.loc	5 0 54                          ## functionDeclarations.c:0:54
	movb	-53(%rbp), %al                  ## 1-byte Reload
	.loc	5 45 5                          ## functionDeclarations.c:45:5
	testb	$1, %al
	jne	LBB11_4
	jmp	LBB11_12
LBB11_4:                                ##   in Loop: Header=BB11_1 Depth=1
Ltmp70:
	.loc	5 47 13 is_stmt 1               ## functionDeclarations.c:47:13
	movq	-16(%rbp), %rax
	movslq	-44(%rbp), %rcx
	.loc	5 47 33 is_stmt 0               ## functionDeclarations.c:47:33
	movl	(%rax,%rcx,8), %eax
	.loc	5 47 42                         ## functionDeclarations.c:47:42
	movq	-24(%rbp), %rcx
	movslq	-48(%rbp), %rdx
	.loc	5 47 40                         ## functionDeclarations.c:47:40
	cmpl	(%rcx,%rdx,8), %eax
Ltmp71:
	.loc	5 47 13                         ## functionDeclarations.c:47:13
	jae	LBB11_6
## %bb.5:                               ##   in Loop: Header=BB11_1 Depth=1
Ltmp72:
	.loc	5 49 13 is_stmt 1               ## functionDeclarations.c:49:13
	movq	-8(%rbp), %rax
	movslq	-52(%rbp), %rcx
	.loc	5 49 37 is_stmt 0               ## functionDeclarations.c:49:37
	movq	-16(%rbp), %rdx
	movslq	-44(%rbp), %rsi
	movq	(%rdx,%rsi,8), %rdx
	movq	%rdx, (%rax,%rcx,8)
	.loc	5 50 25 is_stmt 1               ## functionDeclarations.c:50:25
	movl	-44(%rbp), %eax
	addl	$1, %eax
	movl	%eax, -44(%rbp)
	.loc	5 51 9                          ## functionDeclarations.c:51:9
	jmp	LBB11_11
Ltmp73:
LBB11_6:                                ##   in Loop: Header=BB11_1 Depth=1
	.loc	5 52 19                         ## functionDeclarations.c:52:19
	movq	-16(%rbp), %rax
	movslq	-44(%rbp), %rcx
	.loc	5 52 39 is_stmt 0               ## functionDeclarations.c:52:39
	movl	(%rax,%rcx,8), %eax
	.loc	5 52 49                         ## functionDeclarations.c:52:49
	movq	-24(%rbp), %rcx
	movslq	-48(%rbp), %rdx
	.loc	5 52 46                         ## functionDeclarations.c:52:46
	cmpl	(%rcx,%rdx,8), %eax
	.loc	5 52 79                         ## functionDeclarations.c:52:79
	jne	LBB11_9
## %bb.7:                               ##   in Loop: Header=BB11_1 Depth=1
	.loc	5 53 19 is_stmt 1               ## functionDeclarations.c:53:19
	movq	-16(%rbp), %rax
	movslq	-44(%rbp), %rcx
	.loc	5 53 39 is_stmt 0               ## functionDeclarations.c:53:39
	movl	4(%rax,%rcx,8), %eax
	.loc	5 53 44                         ## functionDeclarations.c:53:44
	movq	-24(%rbp), %rcx
	movslq	-48(%rbp), %rdx
	.loc	5 53 42                         ## functionDeclarations.c:53:42
	cmpl	4(%rcx,%rdx,8), %eax
Ltmp74:
	.loc	5 52 18 is_stmt 1               ## functionDeclarations.c:52:18
	jae	LBB11_9
## %bb.8:                               ##   in Loop: Header=BB11_1 Depth=1
Ltmp75:
	.loc	5 55 13                         ## functionDeclarations.c:55:13
	movq	-8(%rbp), %rax
	movslq	-52(%rbp), %rcx
	.loc	5 55 37 is_stmt 0               ## functionDeclarations.c:55:37
	movq	-16(%rbp), %rdx
	movslq	-44(%rbp), %rsi
	movq	(%rdx,%rsi,8), %rdx
	movq	%rdx, (%rax,%rcx,8)
	.loc	5 56 25 is_stmt 1               ## functionDeclarations.c:56:25
	movl	-44(%rbp), %eax
	addl	$1, %eax
	movl	%eax, -44(%rbp)
	.loc	5 57 9                          ## functionDeclarations.c:57:9
	jmp	LBB11_10
Ltmp76:
LBB11_9:                                ##   in Loop: Header=BB11_1 Depth=1
	.loc	5 60 13                         ## functionDeclarations.c:60:13
	movq	-8(%rbp), %rax
	movslq	-52(%rbp), %rcx
	.loc	5 60 37 is_stmt 0               ## functionDeclarations.c:60:37
	movq	-24(%rbp), %rdx
	movslq	-48(%rbp), %rsi
	movq	(%rdx,%rsi,8), %rdx
	movq	%rdx, (%rax,%rcx,8)
	.loc	5 61 26 is_stmt 1               ## functionDeclarations.c:61:26
	movl	-48(%rbp), %eax
	addl	$1, %eax
	movl	%eax, -48(%rbp)
Ltmp77:
LBB11_10:                               ##   in Loop: Header=BB11_1 Depth=1
	.loc	5 0 26 is_stmt 0                ## functionDeclarations.c:0:26
	jmp	LBB11_11
LBB11_11:                               ##   in Loop: Header=BB11_1 Depth=1
	.loc	5 63 22 is_stmt 1               ## functionDeclarations.c:63:22
	movl	-52(%rbp), %eax
	addl	$1, %eax
	movl	%eax, -52(%rbp)
Ltmp78:
	.loc	5 45 5                          ## functionDeclarations.c:45:5
	jmp	LBB11_1
LBB11_12:
	.loc	5 66 5                          ## functionDeclarations.c:66:5
	jmp	LBB11_13
LBB11_13:                               ## =>This Inner Loop Header: Depth=1
	.loc	5 66 12 is_stmt 0               ## functionDeclarations.c:66:12
	movslq	-44(%rbp), %rax
	.loc	5 66 25                         ## functionDeclarations.c:66:25
	cmpq	-32(%rbp), %rax
	.loc	5 66 5                          ## functionDeclarations.c:66:5
	jae	LBB11_15
## %bb.14:                              ##   in Loop: Header=BB11_13 Depth=1
Ltmp79:
	.loc	5 68 9 is_stmt 1                ## functionDeclarations.c:68:9
	movq	-8(%rbp), %rax
	movslq	-52(%rbp), %rcx
	.loc	5 68 33 is_stmt 0               ## functionDeclarations.c:68:33
	movq	-16(%rbp), %rdx
	movslq	-44(%rbp), %rsi
	movq	(%rdx,%rsi,8), %rdx
	movq	%rdx, (%rax,%rcx,8)
	.loc	5 69 21 is_stmt 1               ## functionDeclarations.c:69:21
	movl	-44(%rbp), %eax
	addl	$1, %eax
	movl	%eax, -44(%rbp)
	.loc	5 70 22                         ## functionDeclarations.c:70:22
	movl	-52(%rbp), %eax
	addl	$1, %eax
	movl	%eax, -52(%rbp)
Ltmp80:
	.loc	5 66 5                          ## functionDeclarations.c:66:5
	jmp	LBB11_13
LBB11_15:
	.loc	5 73 5                          ## functionDeclarations.c:73:5
	jmp	LBB11_16
LBB11_16:                               ## =>This Inner Loop Header: Depth=1
	.loc	5 73 12 is_stmt 0               ## functionDeclarations.c:73:12
	movslq	-48(%rbp), %rax
	.loc	5 73 26                         ## functionDeclarations.c:73:26
	cmpq	-40(%rbp), %rax
	.loc	5 73 5                          ## functionDeclarations.c:73:5
	jae	LBB11_18
## %bb.17:                              ##   in Loop: Header=BB11_16 Depth=1
Ltmp81:
	.loc	5 75 9 is_stmt 1                ## functionDeclarations.c:75:9
	movq	-8(%rbp), %rax
	movslq	-52(%rbp), %rcx
	.loc	5 75 33 is_stmt 0               ## functionDeclarations.c:75:33
	movq	-24(%rbp), %rdx
	movslq	-48(%rbp), %rsi
	movq	(%rdx,%rsi,8), %rdx
	movq	%rdx, (%rax,%rcx,8)
	.loc	5 76 22 is_stmt 1               ## functionDeclarations.c:76:22
	movl	-48(%rbp), %eax
	addl	$1, %eax
	movl	%eax, -48(%rbp)
	.loc	5 77 22                         ## functionDeclarations.c:77:22
	movl	-52(%rbp), %eax
	addl	$1, %eax
	movl	%eax, -52(%rbp)
Ltmp82:
	.loc	5 73 5                          ## functionDeclarations.c:73:5
	jmp	LBB11_16
LBB11_18:
	.loc	5 79 1                          ## functionDeclarations.c:79:1
	popq	%rbp
	retq
Ltmp83:
Lfunc_end11:
	.cfi_endproc
                                        ## -- End function
	.globl	_multiplyConstraint             ## -- Begin function multiplyConstraint
	.p2align	4, 0x90
_multiplyConstraint:                    ## @multiplyConstraint
Lfunc_begin12:
	.loc	5 206 0                         ## functionDeclarations.c:206:0
	.cfi_startproc
## %bb.0:
	pushq	%rbp
	.cfi_def_cfa_offset 16
	.cfi_offset %rbp, -16
	movq	%rsp, %rbp
	.cfi_def_cfa_register %rbp
	subq	$48, %rsp
	movq	%rdi, -8(%rbp)
	movq	%rsi, -16(%rbp)
Ltmp84:
	.loc	5 207 47 prologue_end           ## functionDeclarations.c:207:47
	movl	$1, %edi
	movl	$40, %esi
	callq	_calloc
	.loc	5 207 17 is_stmt 0              ## functionDeclarations.c:207:17
	movq	%rax, -24(%rbp)
	.loc	5 208 36 is_stmt 1              ## functionDeclarations.c:208:36
	movq	-8(%rbp), %rax
	.loc	5 208 39 is_stmt 0              ## functionDeclarations.c:208:39
	movq	8(%rax), %rcx
	.loc	5 208 55                        ## functionDeclarations.c:208:55
	movq	-16(%rbp), %rax
	.loc	5 208 53                        ## functionDeclarations.c:208:53
	imulq	8(%rax), %rcx
	.loc	5 208 5                         ## functionDeclarations.c:208:5
	movq	-24(%rbp), %rax
	.loc	5 208 34                        ## functionDeclarations.c:208:34
	movq	%rcx, 8(%rax)
	.loc	5 209 29 is_stmt 1              ## functionDeclarations.c:209:29
	movq	-8(%rbp), %rax
	.loc	5 209 32 is_stmt 0              ## functionDeclarations.c:209:32
	movl	20(%rax), %ecx
	.loc	5 209 41                        ## functionDeclarations.c:209:41
	movq	-16(%rbp), %rax
	.loc	5 209 39                        ## functionDeclarations.c:209:39
	addl	20(%rax), %ecx
	.loc	5 209 5                         ## functionDeclarations.c:209:5
	movq	-24(%rbp), %rax
	.loc	5 209 27                        ## functionDeclarations.c:209:27
	movl	%ecx, 20(%rax)
	.loc	5 210 42 is_stmt 1              ## functionDeclarations.c:210:42
	movq	-8(%rbp), %rax
	.loc	5 210 45 is_stmt 0              ## functionDeclarations.c:210:45
	movl	16(%rax), %edi
	.loc	5 210 52                        ## functionDeclarations.c:210:52
	movq	-16(%rbp), %rax
	.loc	5 210 55                        ## functionDeclarations.c:210:55
	movl	16(%rax), %esi
	.loc	5 210 28                        ## functionDeclarations.c:210:28
	callq	_multiplySense
	movl	%eax, %ecx
	.loc	5 210 5                         ## functionDeclarations.c:210:5
	movq	-24(%rbp), %rax
	.loc	5 210 26                        ## functionDeclarations.c:210:26
	movl	%ecx, 16(%rax)
	.loc	5 212 35 is_stmt 1              ## functionDeclarations.c:212:35
	movq	-24(%rbp), %rax
	.loc	5 212 50 is_stmt 0              ## functionDeclarations.c:212:50
	movq	8(%rax), %rdi
	.loc	5 212 28                        ## functionDeclarations.c:212:28
	movl	$8, %esi
	callq	_calloc
	.loc	5 212 12                        ## functionDeclarations.c:212:12
	movq	%rax, -32(%rbp)
	.loc	5 213 13 is_stmt 1              ## functionDeclarations.c:213:13
	movl	$0, -36(%rbp)
Ltmp85:
	.loc	5 215 18                        ## functionDeclarations.c:215:18
	movl	$0, -40(%rbp)
LBB12_1:                                ## =>This Loop Header: Depth=1
                                        ##     Child Loop BB12_3 Depth 2
Ltmp86:
	.loc	5 215 25 is_stmt 0              ## functionDeclarations.c:215:25
	movslq	-40(%rbp), %rax
	.loc	5 215 29                        ## functionDeclarations.c:215:29
	movq	-8(%rbp), %rcx
	.loc	5 215 27                        ## functionDeclarations.c:215:27
	cmpq	8(%rcx), %rax
Ltmp87:
	.loc	5 215 5                         ## functionDeclarations.c:215:5
	jae	LBB12_8
## %bb.2:                               ##   in Loop: Header=BB12_1 Depth=1
Ltmp88:
	.loc	5 217 22 is_stmt 1              ## functionDeclarations.c:217:22
	movl	$0, -44(%rbp)
LBB12_3:                                ##   Parent Loop BB12_1 Depth=1
                                        ## =>  This Inner Loop Header: Depth=2
Ltmp89:
	.loc	5 217 29 is_stmt 0              ## functionDeclarations.c:217:29
	movslq	-44(%rbp), %rax
	.loc	5 217 33                        ## functionDeclarations.c:217:33
	movq	-16(%rbp), %rcx
	.loc	5 217 31                        ## functionDeclarations.c:217:31
	cmpq	8(%rcx), %rax
Ltmp90:
	.loc	5 217 9                         ## functionDeclarations.c:217:9
	jae	LBB12_6
## %bb.4:                               ##   in Loop: Header=BB12_3 Depth=2
Ltmp91:
	.loc	5 219 42 is_stmt 1              ## functionDeclarations.c:219:42
	movq	-8(%rbp), %rax
	.loc	5 219 45 is_stmt 0              ## functionDeclarations.c:219:45
	movq	(%rax), %rax
	.loc	5 219 42                        ## functionDeclarations.c:219:42
	movslq	-40(%rbp), %rcx
	movq	(%rax,%rcx,8), %rdi
	.loc	5 219 55                        ## functionDeclarations.c:219:55
	movq	-16(%rbp), %rax
	.loc	5 219 58                        ## functionDeclarations.c:219:58
	movq	(%rax), %rax
	.loc	5 219 55                        ## functionDeclarations.c:219:55
	movslq	-44(%rbp), %rcx
	movq	(%rax,%rcx,8), %rsi
	.loc	5 219 28                        ## functionDeclarations.c:219:28
	callq	_multiplyTerms
	movq	%rax, %rdx
	.loc	5 219 13                        ## functionDeclarations.c:219:13
	movq	-32(%rbp), %rax
	movslq	-36(%rbp), %rcx
	.loc	5 219 26                        ## functionDeclarations.c:219:26
	movq	%rdx, (%rax,%rcx,8)
	.loc	5 220 18 is_stmt 1              ## functionDeclarations.c:220:18
	movl	-36(%rbp), %eax
	addl	$1, %eax
	movl	%eax, -36(%rbp)
Ltmp92:
## %bb.5:                               ##   in Loop: Header=BB12_3 Depth=2
	.loc	5 217 52                        ## functionDeclarations.c:217:52
	movl	-44(%rbp), %eax
	addl	$1, %eax
	movl	%eax, -44(%rbp)
	.loc	5 217 9 is_stmt 0               ## functionDeclarations.c:217:9
	jmp	LBB12_3
Ltmp93:
LBB12_6:                                ##   in Loop: Header=BB12_1 Depth=1
	.loc	5 222 5 is_stmt 1               ## functionDeclarations.c:222:5
	jmp	LBB12_7
Ltmp94:
LBB12_7:                                ##   in Loop: Header=BB12_1 Depth=1
	.loc	5 215 48                        ## functionDeclarations.c:215:48
	movl	-40(%rbp), %eax
	addl	$1, %eax
	movl	%eax, -40(%rbp)
	.loc	5 215 5 is_stmt 0               ## functionDeclarations.c:215:5
	jmp	LBB12_1
Ltmp95:
LBB12_8:
	.loc	5 223 28 is_stmt 1              ## functionDeclarations.c:223:28
	movq	-32(%rbp), %rcx
	.loc	5 223 5 is_stmt 0               ## functionDeclarations.c:223:5
	movq	-24(%rbp), %rax
	.loc	5 223 26                        ## functionDeclarations.c:223:26
	movq	%rcx, (%rax)
	.loc	5 225 32 is_stmt 1              ## functionDeclarations.c:225:32
	movq	-8(%rbp), %rax
	.loc	5 225 35 is_stmt 0              ## functionDeclarations.c:225:35
	movq	32(%rax), %rcx
	.loc	5 225 47                        ## functionDeclarations.c:225:47
	movq	-16(%rbp), %rax
	.loc	5 225 45                        ## functionDeclarations.c:225:45
	addq	32(%rax), %rcx
	.loc	5 225 5                         ## functionDeclarations.c:225:5
	movq	-24(%rbp), %rax
	.loc	5 225 30                        ## functionDeclarations.c:225:30
	movq	%rcx, 32(%rax)
	.loc	5 226 38 is_stmt 1              ## functionDeclarations.c:226:38
	movq	-8(%rbp), %rax
	.loc	5 226 41 is_stmt 0              ## functionDeclarations.c:226:41
	movq	24(%rax), %rdi
	.loc	5 226 46                        ## functionDeclarations.c:226:46
	movq	-16(%rbp), %rax
	.loc	5 226 49                        ## functionDeclarations.c:226:49
	movq	24(%rax), %rsi
	.loc	5 226 54                        ## functionDeclarations.c:226:54
	movq	-8(%rbp), %rax
	.loc	5 226 57                        ## functionDeclarations.c:226:57
	movq	32(%rax), %rdx
	.loc	5 226 68                        ## functionDeclarations.c:226:68
	movq	-16(%rbp), %rax
	.loc	5 226 71                        ## functionDeclarations.c:226:71
	movq	32(%rax), %rcx
	.loc	5 226 26                        ## functionDeclarations.c:226:26
	callq	_multiplyIds
	movq	%rax, %rcx
	.loc	5 226 5                         ## functionDeclarations.c:226:5
	movq	-24(%rbp), %rax
	.loc	5 226 24                        ## functionDeclarations.c:226:24
	movq	%rcx, 24(%rax)
	.loc	5 228 12 is_stmt 1              ## functionDeclarations.c:228:12
	movq	-24(%rbp), %rax
	.loc	5 228 5 is_stmt 0               ## functionDeclarations.c:228:5
	addq	$48, %rsp
	popq	%rbp
	retq
Ltmp96:
Lfunc_end12:
	.cfi_endproc
                                        ## -- End function
	.globl	_negateConstraint               ## -- Begin function negateConstraint
	.p2align	4, 0x90
_negateConstraint:                      ## @negateConstraint
Lfunc_begin13:
	.loc	5 232 0 is_stmt 1               ## functionDeclarations.c:232:0
	.cfi_startproc
## %bb.0:
	pushq	%rbp
	.cfi_def_cfa_offset 16
	.cfi_offset %rbp, -16
	movq	%rsp, %rbp
	.cfi_def_cfa_register %rbp
	subq	$16, %rsp
	movq	%rdi, -8(%rbp)
Ltmp97:
	.loc	5 233 18 prologue_end           ## functionDeclarations.c:233:18
	movl	$0, -12(%rbp)
LBB13_1:                                ## =>This Inner Loop Header: Depth=1
Ltmp98:
	.loc	5 233 25 is_stmt 0              ## functionDeclarations.c:233:25
	movslq	-12(%rbp), %rax
	.loc	5 233 29                        ## functionDeclarations.c:233:29
	movq	-8(%rbp), %rcx
	.loc	5 233 27                        ## functionDeclarations.c:233:27
	cmpq	8(%rcx), %rax
Ltmp99:
	.loc	5 233 5                         ## functionDeclarations.c:233:5
	jae	LBB13_4
## %bb.2:                               ##   in Loop: Header=BB13_1 Depth=1
Ltmp100:
	.loc	5 235 21 is_stmt 1              ## functionDeclarations.c:235:21
	movq	-8(%rbp), %rax
	.loc	5 235 24 is_stmt 0              ## functionDeclarations.c:235:24
	movq	(%rax), %rax
	.loc	5 235 20                        ## functionDeclarations.c:235:20
	movslq	-12(%rbp), %rcx
	movq	(%rax,%rcx,8), %rdi
	.loc	5 235 9                         ## functionDeclarations.c:235:9
	callq	_negateTerm
Ltmp101:
## %bb.3:                               ##   in Loop: Header=BB13_1 Depth=1
	.loc	5 233 48 is_stmt 1              ## functionDeclarations.c:233:48
	movl	-12(%rbp), %eax
	addl	$1, %eax
	movl	%eax, -12(%rbp)
	.loc	5 233 5 is_stmt 0               ## functionDeclarations.c:233:5
	jmp	LBB13_1
Ltmp102:
LBB13_4:
	.loc	5 237 1 is_stmt 1               ## functionDeclarations.c:237:1
	addq	$16, %rsp
	popq	%rbp
	retq
Ltmp103:
Lfunc_end13:
	.cfi_endproc
                                        ## -- End function
	.globl	_freeConstraint                 ## -- Begin function freeConstraint
	.p2align	4, 0x90
_freeConstraint:                        ## @freeConstraint
Lfunc_begin14:
	.loc	5 240 0                         ## functionDeclarations.c:240:0
	.cfi_startproc
## %bb.0:
	pushq	%rbp
	.cfi_def_cfa_offset 16
	.cfi_offset %rbp, -16
	movq	%rsp, %rbp
	.cfi_def_cfa_register %rbp
	subq	$16, %rsp
	movq	%rdi, -8(%rbp)
Ltmp104:
	.loc	5 241 18 prologue_end           ## functionDeclarations.c:241:18
	movl	$0, -12(%rbp)
LBB14_1:                                ## =>This Inner Loop Header: Depth=1
Ltmp105:
	.loc	5 241 25 is_stmt 0              ## functionDeclarations.c:241:25
	movslq	-12(%rbp), %rax
	.loc	5 241 29                        ## functionDeclarations.c:241:29
	movq	-8(%rbp), %rcx
	.loc	5 241 27                        ## functionDeclarations.c:241:27
	cmpq	8(%rcx), %rax
Ltmp106:
	.loc	5 241 5                         ## functionDeclarations.c:241:5
	jae	LBB14_4
## %bb.2:                               ##   in Loop: Header=BB14_1 Depth=1
Ltmp107:
	.loc	5 243 19 is_stmt 1              ## functionDeclarations.c:243:19
	movq	-8(%rbp), %rax
	.loc	5 243 22 is_stmt 0              ## functionDeclarations.c:243:22
	movq	(%rax), %rax
	.loc	5 243 18                        ## functionDeclarations.c:243:18
	movslq	-12(%rbp), %rcx
	movq	(%rax,%rcx,8), %rdi
	.loc	5 243 9                         ## functionDeclarations.c:243:9
	callq	_freeTerm
Ltmp108:
## %bb.3:                               ##   in Loop: Header=BB14_1 Depth=1
	.loc	5 241 48 is_stmt 1              ## functionDeclarations.c:241:48
	movl	-12(%rbp), %eax
	addl	$1, %eax
	movl	%eax, -12(%rbp)
	.loc	5 241 5 is_stmt 0               ## functionDeclarations.c:241:5
	jmp	LBB14_1
Ltmp109:
LBB14_4:
	.loc	5 245 10 is_stmt 1              ## functionDeclarations.c:245:10
	movq	-8(%rbp), %rax
	.loc	5 245 13 is_stmt 0              ## functionDeclarations.c:245:13
	movq	24(%rax), %rdi
	.loc	5 245 5                         ## functionDeclarations.c:245:5
	callq	_free
	.loc	5 246 10 is_stmt 1              ## functionDeclarations.c:246:10
	movq	-8(%rbp), %rax
	.loc	5 246 13 is_stmt 0              ## functionDeclarations.c:246:13
	movq	(%rax), %rdi
	.loc	5 246 5                         ## functionDeclarations.c:246:5
	callq	_free
	.loc	5 247 10 is_stmt 1              ## functionDeclarations.c:247:10
	movq	-8(%rbp), %rdi
	.loc	5 247 5 is_stmt 0               ## functionDeclarations.c:247:5
	callq	_free
	.loc	5 248 1 is_stmt 1               ## functionDeclarations.c:248:1
	addq	$16, %rsp
	popq	%rbp
	retq
Ltmp110:
Lfunc_end14:
	.cfi_endproc
                                        ## -- End function
	.section	__TEXT,__literal8,8byte_literals
	.p2align	3                               ## -- Begin function main
LCPI15_0:
	.quad	0x4000000000000000              ## double 2
LCPI15_1:
	.quad	0x3ff0000000000000              ## double 1
	.section	__TEXT,__text,regular,pure_instructions
	.globl	_main
	.p2align	4, 0x90
_main:                                  ## @main
Lfunc_begin15:
	.loc	5 251 0                         ## functionDeclarations.c:251:0
	.cfi_startproc
## %bb.0:
	pushq	%rbp
	.cfi_def_cfa_offset 16
	.cfi_offset %rbp, -16
	movq	%rsp, %rbp
	.cfi_def_cfa_register %rbp
	subq	$320, %rsp                      ## imm = 0x140
	movq	___stack_chk_guard@GOTPCREL(%rip), %rax
	movq	(%rax), %rax
	movq	%rax, -8(%rbp)
	movl	$0, -76(%rbp)
Ltmp111:
	.loc	5 253 13 prologue_end           ## functionDeclarations.c:253:13
	movq	L___const.main.index1(%rip), %rax
	movq	%rax, -16(%rbp)
	.loc	5 254 13                        ## functionDeclarations.c:254:13
	movq	l___const.main.index2(%rip), %rax
	movq	%rax, -28(%rbp)
	movl	l___const.main.index2+8(%rip), %eax
	movl	%eax, -20(%rbp)
	movsd	LCPI15_0(%rip), %xmm0           ## xmm0 = mem[0],zero
	movsd	LCPI15_1(%rip), %xmm1           ## xmm1 = mem[0],zero
	leaq	-28(%rbp), %rax
	leaq	-16(%rbp), %rcx
	.loc	5 255 26                        ## functionDeclarations.c:255:26
	movq	$0, -96(%rbp)
	.loc	5 256 26                        ## functionDeclarations.c:256:26
	movq	$0, -88(%rbp)
	.loc	5 257 26                        ## functionDeclarations.c:257:26
	movq	$0, -128(%rbp)
	.loc	5 258 26                        ## functionDeclarations.c:258:26
	movq	$0, -120(%rbp)
	.loc	5 259 21                        ## functionDeclarations.c:259:21
	movq	%rcx, -112(%rbp)
	.loc	5 260 20                        ## functionDeclarations.c:260:20
	movq	$2, -104(%rbp)
	.loc	5 261 21                        ## functionDeclarations.c:261:21
	movq	%rax, -144(%rbp)
	.loc	5 262 20                        ## functionDeclarations.c:262:20
	movq	$3, -136(%rbp)
	.loc	5 265 20                        ## functionDeclarations.c:265:20
	movsd	%xmm1, -152(%rbp)
	.loc	5 266 20                        ## functionDeclarations.c:266:20
	movsd	%xmm0, -168(%rbp)
	.loc	5 267 18                        ## functionDeclarations.c:267:18
	leaq	-112(%rbp), %rax
	movq	%rax, -160(%rbp)
	.loc	5 268 18                        ## functionDeclarations.c:268:18
	leaq	-144(%rbp), %rax
	movq	%rax, -176(%rbp)
	.loc	5 272 15                        ## functionDeclarations.c:272:15
	movl	$2, -196(%rbp)
	.loc	5 273 15                        ## functionDeclarations.c:273:15
	movl	$3, -236(%rbp)
	.loc	5 275 17                        ## functionDeclarations.c:275:17
	movl	$2, -264(%rbp)
	.loc	5 276 13                        ## functionDeclarations.c:276:13
	movl	$1, -260(%rbp)
	.loc	5 277 17                        ## functionDeclarations.c:277:17
	movl	$3, -272(%rbp)
	.loc	5 278 13                        ## functionDeclarations.c:278:13
	movl	$1, -268(%rbp)
	.loc	5 280 24                        ## functionDeclarations.c:280:24
	movq	-264(%rbp), %rax
	movq	%rax, -40(%rbp)
	.loc	5 281 24                        ## functionDeclarations.c:281:24
	movq	-272(%rbp), %rax
	movq	%rax, -48(%rbp)
	leaq	-72(%rbp), %rax
	leaq	-64(%rbp), %rcx
	leaq	-48(%rbp), %rdx
	leaq	-40(%rbp), %rsi
Ltmp112:
	##DEBUG_VALUE: main:termArray1 <- [$rcx+0]
	.loc	5 283 26                        ## functionDeclarations.c:283:26
	leaq	-160(%rbp), %rdi
	movq	%rdi, -64(%rbp)
	leaq	-176(%rbp), %rdi
	movq	%rdi, -56(%rbp)
Ltmp113:
	##DEBUG_VALUE: main:termArray2 <- [$rax+0]
	.loc	5 284 26                        ## functionDeclarations.c:284:26
	movq	%rdi, -72(%rbp)
	.loc	5 286 12                        ## functionDeclarations.c:286:12
	movq	%rsi, -192(%rbp)
	.loc	5 287 12                        ## functionDeclarations.c:287:12
	movq	%rdx, -232(%rbp)
	.loc	5 288 22                        ## functionDeclarations.c:288:22
	movq	$2, -208(%rbp)
	.loc	5 289 22                        ## functionDeclarations.c:289:22
	movq	$1, -248(%rbp)
	.loc	5 290 14                        ## functionDeclarations.c:290:14
	movl	$1, -200(%rbp)
	.loc	5 291 14                        ## functionDeclarations.c:291:14
	movl	$0, -240(%rbp)
	.loc	5 292 18                        ## functionDeclarations.c:292:18
	movq	$1, -184(%rbp)
	.loc	5 293 18                        ## functionDeclarations.c:293:18
	movq	$1, -224(%rbp)
	.loc	5 294 14                        ## functionDeclarations.c:294:14
	movq	%rcx, -216(%rbp)
	.loc	5 295 14                        ## functionDeclarations.c:295:14
	movq	%rax, -256(%rbp)
	.loc	5 299 10                        ## functionDeclarations.c:299:10
	leaq	-216(%rbp), %rdi
	leaq	-256(%rbp), %rsi
	callq	_canMultiply
Ltmp114:
	.loc	5 299 8 is_stmt 0               ## functionDeclarations.c:299:8
	andb	$1, %al
	movb	%al, -273(%rbp)
	.loc	5 300 10 is_stmt 1              ## functionDeclarations.c:300:10
	leaq	-216(%rbp), %rsi
	movq	%rsi, %rdi
	callq	_canMultiply
	.loc	5 300 8 is_stmt 0               ## functionDeclarations.c:300:8
	andb	$1, %al
	movb	%al, -274(%rbp)
	.loc	5 301 10 is_stmt 1              ## functionDeclarations.c:301:10
	leaq	-256(%rbp), %rsi
	movq	%rsi, %rdi
	callq	_canMultiply
	.loc	5 301 8 is_stmt 0               ## functionDeclarations.c:301:8
	andb	$1, %al
	movb	%al, -275(%rbp)
	.loc	5 303 9 is_stmt 1               ## functionDeclarations.c:303:9
	testb	$1, -273(%rbp)
	je	LBB15_2
## %bb.1:
Ltmp115:
	.loc	5 304 9                         ## functionDeclarations.c:304:9
	leaq	L_.str(%rip), %rdi
	movb	$0, %al
	callq	_printf
	.loc	5 305 5                         ## functionDeclarations.c:305:5
	jmp	LBB15_3
Ltmp116:
LBB15_2:
	.loc	5 307 9                         ## functionDeclarations.c:307:9
	leaq	L_.str.1(%rip), %rdi
	movb	$0, %al
	callq	_printf
Ltmp117:
LBB15_3:
	.loc	5 310 9                         ## functionDeclarations.c:310:9
	testb	$1, -274(%rbp)
	je	LBB15_5
## %bb.4:
Ltmp118:
	.loc	5 311 9                         ## functionDeclarations.c:311:9
	leaq	L_.str.2(%rip), %rdi
	movb	$0, %al
	callq	_printf
	.loc	5 312 5                         ## functionDeclarations.c:312:5
	jmp	LBB15_6
Ltmp119:
LBB15_5:
	.loc	5 314 9                         ## functionDeclarations.c:314:9
	leaq	L_.str.3(%rip), %rdi
	movb	$0, %al
	callq	_printf
Ltmp120:
LBB15_6:
	.loc	5 317 9                         ## functionDeclarations.c:317:9
	testb	$1, -275(%rbp)
	je	LBB15_8
## %bb.7:
Ltmp121:
	.loc	5 318 9                         ## functionDeclarations.c:318:9
	leaq	L_.str.4(%rip), %rdi
	movb	$0, %al
	callq	_printf
	.loc	5 319 5                         ## functionDeclarations.c:319:5
	jmp	LBB15_9
Ltmp122:
LBB15_8:
	.loc	5 321 9                         ## functionDeclarations.c:321:9
	leaq	L_.str.5(%rip), %rdi
	movb	$0, %al
	callq	_printf
Ltmp123:
LBB15_9:
	.loc	5 324 33                        ## functionDeclarations.c:324:33
	leaq	-216(%rbp), %rdi
	leaq	-256(%rbp), %rsi
	callq	_multiplyConstraint
	.loc	5 324 17 is_stmt 0              ## functionDeclarations.c:324:17
	movq	%rax, -288(%rbp)
	.loc	5 326 20 is_stmt 1              ## functionDeclarations.c:326:20
	movq	-288(%rbp), %rax
	.loc	5 326 35 is_stmt 0              ## functionDeclarations.c:326:35
	movl	20(%rax), %esi
	.loc	5 326 5                         ## functionDeclarations.c:326:5
	leaq	L_.str.6(%rip), %rdi
	movb	$0, %al
	callq	_printf
	.loc	5 327 21 is_stmt 1              ## functionDeclarations.c:327:21
	movq	-288(%rbp), %rax
	.loc	5 327 36 is_stmt 0              ## functionDeclarations.c:327:36
	movq	8(%rax), %rsi
	.loc	5 327 5                         ## functionDeclarations.c:327:5
	leaq	L_.str.7(%rip), %rdi
	movb	$0, %al
	callq	_printf
	.loc	5 328 20 is_stmt 1              ## functionDeclarations.c:328:20
	movq	-288(%rbp), %rax
	.loc	5 328 35 is_stmt 0              ## functionDeclarations.c:328:35
	movl	16(%rax), %esi
	.loc	5 328 5                         ## functionDeclarations.c:328:5
	leaq	L_.str.6(%rip), %rdi
	movb	$0, %al
	callq	_printf
	.loc	5 329 21 is_stmt 1              ## functionDeclarations.c:329:21
	movq	-288(%rbp), %rax
	.loc	5 329 36 is_stmt 0              ## functionDeclarations.c:329:36
	movq	32(%rax), %rsi
	.loc	5 329 5                         ## functionDeclarations.c:329:5
	leaq	L_.str.7(%rip), %rdi
	movb	$0, %al
	callq	_printf
Ltmp124:
	.loc	5 330 17 is_stmt 1              ## functionDeclarations.c:330:17
	movq	$0, -296(%rbp)
LBB15_10:                               ## =>This Inner Loop Header: Depth=1
Ltmp125:
	.loc	5 330 24 is_stmt 0              ## functionDeclarations.c:330:24
	movq	-296(%rbp), %rax
	.loc	5 330 28                        ## functionDeclarations.c:330:28
	movq	-288(%rbp), %rcx
	.loc	5 330 26                        ## functionDeclarations.c:330:26
	cmpq	32(%rcx), %rax
Ltmp126:
	.loc	5 330 5                         ## functionDeclarations.c:330:5
	jae	LBB15_13
## %bb.11:                              ##   in Loop: Header=BB15_10 Depth=1
Ltmp127:
	.loc	5 331 29 is_stmt 1              ## functionDeclarations.c:331:29
	movq	-288(%rbp), %rax
	.loc	5 331 44 is_stmt 0              ## functionDeclarations.c:331:44
	movq	24(%rax), %rax
	.loc	5 331 49                        ## functionDeclarations.c:331:49
	movq	-296(%rbp), %rcx
	.loc	5 331 52                        ## functionDeclarations.c:331:52
	movl	(%rax,%rcx,8), %esi
	.loc	5 331 61                        ## functionDeclarations.c:331:61
	movq	-288(%rbp), %rax
	.loc	5 331 76                        ## functionDeclarations.c:331:76
	movq	24(%rax), %rax
	.loc	5 331 81                        ## functionDeclarations.c:331:81
	movq	-296(%rbp), %rcx
	.loc	5 331 84                        ## functionDeclarations.c:331:84
	movl	4(%rax,%rcx,8), %edx
	.loc	5 331 9                         ## functionDeclarations.c:331:9
	leaq	L_.str.8(%rip), %rdi
	movb	$0, %al
	callq	_printf
Ltmp128:
## %bb.12:                              ##   in Loop: Header=BB15_10 Depth=1
	.loc	5 330 55 is_stmt 1              ## functionDeclarations.c:330:55
	movq	-296(%rbp), %rax
	addq	$1, %rax
	movq	%rax, -296(%rbp)
	.loc	5 330 5 is_stmt 0               ## functionDeclarations.c:330:5
	jmp	LBB15_10
Ltmp129:
LBB15_13:
	.loc	5 334 17 is_stmt 1              ## functionDeclarations.c:334:17
	movq	$0, -304(%rbp)
LBB15_14:                               ## =>This Loop Header: Depth=1
                                        ##     Child Loop BB15_16 Depth 2
Ltmp130:
	.loc	5 334 24 is_stmt 0              ## functionDeclarations.c:334:24
	movq	-304(%rbp), %rax
	.loc	5 334 28                        ## functionDeclarations.c:334:28
	movq	-288(%rbp), %rcx
	.loc	5 334 26                        ## functionDeclarations.c:334:26
	cmpq	8(%rcx), %rax
Ltmp131:
	.loc	5 334 5                         ## functionDeclarations.c:334:5
	jae	LBB15_21
## %bb.15:                              ##   in Loop: Header=BB15_14 Depth=1
Ltmp132:
	.loc	5 335 20 is_stmt 1              ## functionDeclarations.c:335:20
	movq	$0, -312(%rbp)
LBB15_16:                               ##   Parent Loop BB15_14 Depth=1
                                        ## =>  This Inner Loop Header: Depth=2
Ltmp133:
	.loc	5 335 27 is_stmt 0              ## functionDeclarations.c:335:27
	movq	-312(%rbp), %rax
	.loc	5 335 32                        ## functionDeclarations.c:335:32
	movq	-288(%rbp), %rcx
	.loc	5 335 47                        ## functionDeclarations.c:335:47
	movq	(%rcx), %rcx
	.loc	5 335 54                        ## functionDeclarations.c:335:54
	movq	-304(%rbp), %rdx
	.loc	5 335 31                        ## functionDeclarations.c:335:31
	movq	(%rcx,%rdx,8), %rcx
	.loc	5 335 58                        ## functionDeclarations.c:335:58
	movq	(%rcx), %rcx
	.loc	5 335 29                        ## functionDeclarations.c:335:29
	cmpq	8(%rcx), %rax
Ltmp134:
	.loc	5 335 9                         ## functionDeclarations.c:335:9
	jae	LBB15_19
## %bb.17:                              ##   in Loop: Header=BB15_16 Depth=2
Ltmp135:
	.loc	5 336 29 is_stmt 1              ## functionDeclarations.c:336:29
	movq	-288(%rbp), %rax
	.loc	5 336 44 is_stmt 0              ## functionDeclarations.c:336:44
	movq	(%rax), %rax
	.loc	5 336 51                        ## functionDeclarations.c:336:51
	movq	-304(%rbp), %rcx
	.loc	5 336 28                        ## functionDeclarations.c:336:28
	movq	(%rax,%rcx,8), %rax
	.loc	5 336 55                        ## functionDeclarations.c:336:55
	movq	(%rax), %rax
	.loc	5 336 66                        ## functionDeclarations.c:336:66
	movq	(%rax), %rax
	.loc	5 336 73                        ## functionDeclarations.c:336:73
	movq	-312(%rbp), %rcx
	.loc	5 336 27                        ## functionDeclarations.c:336:27
	movl	(%rax,%rcx,4), %esi
	.loc	5 336 13                        ## functionDeclarations.c:336:13
	leaq	L_.str.9(%rip), %rdi
	movb	$0, %al
	callq	_printf
Ltmp136:
## %bb.18:                              ##   in Loop: Header=BB15_16 Depth=2
	.loc	5 335 76 is_stmt 1              ## functionDeclarations.c:335:76
	movq	-312(%rbp), %rax
	addq	$1, %rax
	movq	%rax, -312(%rbp)
	.loc	5 335 9 is_stmt 0               ## functionDeclarations.c:335:9
	jmp	LBB15_16
Ltmp137:
LBB15_19:                               ##   in Loop: Header=BB15_14 Depth=1
	.loc	5 338 9 is_stmt 1               ## functionDeclarations.c:338:9
	leaq	L_.str.10(%rip), %rdi
	movb	$0, %al
	callq	_printf
Ltmp138:
## %bb.20:                              ##   in Loop: Header=BB15_14 Depth=1
	.loc	5 334 59                        ## functionDeclarations.c:334:59
	movq	-304(%rbp), %rax
	addq	$1, %rax
	movq	%rax, -304(%rbp)
	.loc	5 334 5 is_stmt 0               ## functionDeclarations.c:334:5
	jmp	LBB15_14
Ltmp139:
LBB15_21:
	.loc	5 341 20 is_stmt 1              ## functionDeclarations.c:341:20
	movq	-288(%rbp), %rdi
	.loc	5 341 5 is_stmt 0               ## functionDeclarations.c:341:5
	callq	_freeConstraint
	movq	___stack_chk_guard@GOTPCREL(%rip), %rax
	movq	(%rax), %rax
	movq	-8(%rbp), %rcx
	cmpq	%rcx, %rax
	jne	LBB15_23
## %bb.22:
	.loc	5 0 5                           ## functionDeclarations.c:0:5
	xorl	%eax, %eax
	.loc	5 343 5 is_stmt 1               ## functionDeclarations.c:343:5
	addq	$320, %rsp                      ## imm = 0x140
	popq	%rbp
	retq
LBB15_23:
	.loc	5 0 0 is_stmt 0                 ## functionDeclarations.c:0:0
	callq	___stack_chk_fail
	ud2
Ltmp140:
Lfunc_end15:
	.cfi_endproc
                                        ## -- End function
	.section	__TEXT,__literal8,8byte_literals
	.p2align	2                               ## @__const.main.index1
L___const.main.index1:
	.long	1                               ## 0x1
	.long	3                               ## 0x3

	.section	__TEXT,__const
	.p2align	2                               ## @__const.main.index2
l___const.main.index2:
	.long	1                               ## 0x1
	.long	2                               ## 0x2
	.long	4                               ## 0x4

	.section	__TEXT,__cstring,cstring_literals
L_.str:                                 ## @.str
	.asciz	"m1 is True\n"

L_.str.1:                               ## @.str.1
	.asciz	"m1 is False\n"

L_.str.2:                               ## @.str.2
	.asciz	"m2 is True\n"

L_.str.3:                               ## @.str.3
	.asciz	"m2 is False\n"

L_.str.4:                               ## @.str.4
	.asciz	"m3 is True\n"

L_.str.5:                               ## @.str.5
	.asciz	"m3 is False\n"

L_.str.6:                               ## @.str.6
	.asciz	"%d\n"

L_.str.7:                               ## @.str.7
	.asciz	"%ld\n"

L_.str.8:                               ## @.str.8
	.asciz	"%d, %d\n"

L_.str.9:                               ## @.str.9
	.asciz	"%d "

L_.str.10:                              ## @.str.10
	.asciz	"\n"
